ccopy_reg
_reconstructor
p0
(csklearn.linear_model.base
LinearRegression
p1
c__builtin__
object
p2
Ntp3
Rp4
(dp5
S'normalize'
p6
I00
sS'n_jobs'
p7
I1
sS'rank_'
p8
I4
sS'fit_intercept'
p9
I01
sS'_residues'
p10
cnumpy.core.multiarray
scalar
p11
(cnumpy
dtype
p12
(S'f8'
p13
I0
I1
tp14
Rp15
(I3
S'<'
p16
NNNI-1
I-1
I0
tp17
bS'\xb6\xf0\x9b-\xb4gHA'
p18
tp19
Rp20
sS'coef_'
p21
cnumpy.core.multiarray
_reconstruct
p22
(cnumpy
ndarray
p23
(I0
tp24
S'b'
p25
tp26
Rp27
(I1
(I4
tp28
g15
I00
S'\xa9\xf4\xda[\xf9\xe2m@\x00\xb8\x89\xfei7\xe1\xbf\x00P\x96CkA\xa5\xbf\xd0\x83>\xa7\xf0\x95\x08\xc0'
p29
tp30
bsS'_sklearn_version'
p31
S'0.19.1'
p32
sS'copy_X'
p33
I01
sS'intercept_'
p34
g11
(g15
S'\xcd\xb3\xe5\xd4\x9c\x1ay@'
p35
tp36
Rp37
sS'singular_'
p38
g22
(g23
(I0
tp39
g25
tp40
Rp41
(I1
(I4
tp42
g15
I00
S'@%\xc5@tTQ@*0\x95y\xe1NL@\xe5\xd4\x90\xbf4\xca@@\xcc,\xb6\x1ey\x886@'
p43
tp44
bsb.